; ModuleID = '1/1588.c'
source_filename = "1/1588.c"
target datalayout = "e-m:e-p270:32:32-p271:32:32-p272:64:64-i64:64-f80:128-n8:16:32:64-S128"
target triple = "x86_64-pc-linux-gnu"

@.str = private unnamed_addr constant [3 x i8] c"%d\00", align 1
@.str.1 = private unnamed_addr constant [4 x i8] c"%d\0A\00", align 1

; Function Attrs: noinline nounwind uwtable
define dso_local i32 @main() #0 {
  %1 = alloca i32, align 4
  %2 = alloca i32, align 4
  %3 = alloca i32, align 4
  %4 = alloca [500 x i32], align 16
  store i32 0, i32* %1, align 4
  %5 = call i32 (i8*, ...) @__isoc99_scanf(i8* getelementptr inbounds ([3 x i8], [3 x i8]* @.str, i64 0, i64 0), i32* %2)
  store i32 0, i32* %3, align 4
  br label %6

6:                                                ; preds = %21, %0
  %7 = load i32, i32* %3, align 4
  %8 = load i32, i32* %2, align 4
  %9 = icmp slt i32 %7, %8
  br i1 %9, label %10, label %24

10:                                               ; preds = %6
  %11 = load i32, i32* %3, align 4
  %12 = sext i32 %11 to i64
  %13 = getelementptr inbounds [500 x i32], [500 x i32]* %4, i64 0, i64 %12
  %14 = call i32 (i8*, ...) @__isoc99_scanf(i8* getelementptr inbounds ([3 x i8], [3 x i8]* @.str, i64 0, i64 0), i32* %13)
  %15 = load i32, i32* %3, align 4
  %16 = sext i32 %15 to i64
  %17 = getelementptr inbounds [500 x i32], [500 x i32]* %4, i64 0, i64 %16
  %18 = load i32, i32* %17, align 4
  %19 = call i32 @fen(i32 %18, i32 2)
  %20 = call i32 (i8*, ...) @printf(i8* getelementptr inbounds ([4 x i8], [4 x i8]* @.str.1, i64 0, i64 0), i32 %19)
  br label %21

21:                                               ; preds = %10
  %22 = load i32, i32* %3, align 4
  %23 = add nsw i32 %22, 1
  store i32 %23, i32* %3, align 4
  br label %6

24:                                               ; preds = %6
  ret i32 0
}

declare dso_local i32 @__isoc99_scanf(i8*, ...) #1

declare dso_local i32 @printf(i8*, ...) #1

; Function Attrs: noinline nounwind uwtable
define dso_local i32 @fen(i32 %0, i32 %1) #0 {
  %3 = alloca i32, align 4
  %4 = alloca i32, align 4
  %5 = alloca i32, align 4
  %6 = alloca i32, align 4
  %7 = alloca i32, align 4
  %8 = alloca i32, align 4
  store i32 %0, i32* %4, align 4
  store i32 %1, i32* %5, align 4
  store i32 1, i32* %8, align 4
  %9 = load i32, i32* %4, align 4
  %10 = load i32, i32* %5, align 4
  %11 = icmp slt i32 %9, %10
  br i1 %11, label %12, label %13

12:                                               ; preds = %2
  store i32 0, i32* %3, align 4
  br label %38

13:                                               ; preds = %2
  %14 = load i32, i32* %5, align 4
  store i32 %14, i32* %6, align 4
  br label %15

15:                                               ; preds = %33, %13
  %16 = load i32, i32* %6, align 4
  %17 = load i32, i32* %4, align 4
  %18 = icmp slt i32 %16, %17
  br i1 %18, label %19, label %36

19:                                               ; preds = %15
  %20 = load i32, i32* %4, align 4
  %21 = load i32, i32* %6, align 4
  %22 = srem i32 %20, %21
  %23 = icmp eq i32 %22, 0
  br i1 %23, label %24, label %32

24:                                               ; preds = %19
  %25 = load i32, i32* %4, align 4
  %26 = load i32, i32* %6, align 4
  %27 = sdiv i32 %25, %26
  %28 = load i32, i32* %6, align 4
  %29 = call i32 @fen(i32 %27, i32 %28)
  %30 = load i32, i32* %8, align 4
  %31 = add nsw i32 %30, %29
  store i32 %31, i32* %8, align 4
  br label %32

32:                                               ; preds = %24, %19
  br label %33

33:                                               ; preds = %32
  %34 = load i32, i32* %6, align 4
  %35 = add nsw i32 %34, 1
  store i32 %35, i32* %6, align 4
  br label %15

36:                                               ; preds = %15
  %37 = load i32, i32* %8, align 4
  store i32 %37, i32* %3, align 4
  br label %38

38:                                               ; preds = %36, %12
  %39 = load i32, i32* %3, align 4
  ret i32 %39
}


!llvm.module.flags = !{!0}
!llvm.ident = !{!1}

!0 = !{i32 1, !"wchar_size", i32 4}
!1 = !{!"clang version 10.0.0-4ubuntu1 "}
